target datalayout = "e-m:e-p270:32:32-p271:32:32-p272:64:64-i64:64-i128:128-f80:128-n8:16:32:64-S128"
target triple = "x86_64-pc-linux-gnu"

%struct.anon = type { i8 }
%union.anon = type { %struct.anon.2 }
%struct.anon.2 = type { i8, i8, ptr, ptr }
%struct.ABIArgInfo_ = type { i32, i8, %struct.anon, %union.anon }
%struct.anon.3 = type { i32, ptr }

; Function Attrs: nounwind uwtable
define internal ptr @abi_arg_new(i32 noundef %0) #0 {
  %2 = alloca i32, align 4
  %3 = alloca ptr, align 8
  store i32 %0, ptr %2, align 4
  %4 = call ptr @calloc_arena(i64 noundef 32)
  store ptr %4, ptr %3, align 8
  %5 = load i32, ptr %2, align 4
  %6 = load ptr, ptr %3, align 8
  %7 = getelementptr inbounds %struct.ABIArgInfo_, ptr %6, i32 0, i32 1
  %8 = trunc i32 %5 to i8
  %9 = load i8, ptr %7, align 4
  %10 = and i8 %8, 63
  %11 = and i8 %9, -64
  %12 = or i8 %11, %10
  store i8 %12, ptr %7, align 4
  %13 = load ptr, ptr %3, align 8
  ret ptr %13
}

; Function Attrs: nounwind uwtable
define dso_local ptr @abi_arg_new_indirect_realigned(i32 noundef %0, ptr noundef %1) #0 {
  %3 = alloca i32, align 4
  %4 = alloca ptr, align 8
  %5 = alloca ptr, align 8
  store i32 %0, ptr %3, align 4
  store ptr %1, ptr %4, align 8
  %6 = call ptr @abi_arg_new(i32 noundef 7)
  store ptr %6, ptr %5, align 8
  %7 = load i32, ptr %3, align 4
  %8 = load ptr, ptr %5, align 8
  %9 = getelementptr inbounds %struct.ABIArgInfo_, ptr %8, i32 0, i32 3
  %10 = getelementptr inbounds %struct.anon.3, ptr %9, i32 0, i32 0
  store i32 %7, ptr %10, align 8
  %11 = load ptr, ptr %5, align 8
  %12 = getelementptr inbounds %struct.ABIArgInfo_, ptr %11, i32 0, i32 2
  %13 = load i8, ptr %12, align 1
  %14 = and i8 %13, -9
  %15 = or i8 %14, 8
  store i8 %15, ptr %12, align 1
  %16 = load ptr, ptr %4, align 8
  %17 = load ptr, ptr %5, align 8
  %18 = getelementptr inbounds %struct.ABIArgInfo_, ptr %17, i32 0, i32 3
  %19 = getelementptr inbounds %struct.anon.3, ptr %18, i32 0, i32 1
  store ptr %16, ptr %19, align 8
  %20 = load ptr, ptr %5, align 8
  %21 = getelementptr inbounds %struct.ABIArgInfo_, ptr %20, i32 0, i32 2
  %22 = load i8, ptr %21, align 1
  %23 = and i8 %22, -17
  %24 = or i8 %23, 16
  store i8 %24, ptr %21, align 1
  %25 = load ptr, ptr %5, align 8
  ret ptr %25
}