; Function Attrs: nounwind uwtable
define dso_local ptr @abi_arg_new_indirect_realigned(i32 noundef %0, ptr noundef %1) local_unnamed_addr #2 {
  %3 = tail call ptr @calloc_arena(i64 noundef 32) #5
  %4 = getelementptr inbounds i8, ptr %3, i64 4
  %5 = load i8, ptr %4, align 4
  %6 = and i8 %5, -64
  %7 = or disjoint i8 %6, 7
  store i8 %7, ptr %4, align 4
  %8 = getelementptr inbounds i8, ptr %3, i64 8
  store i32 %0, ptr %8, align 8
  %9 = getelementptr inbounds i8, ptr %3, i64 5
  %10 = load i8, ptr %9, align 1
  %11 = getelementptr inbounds i8, ptr %3, i64 16
  store ptr %1, ptr %11, align 8
  %12 = or i8 %10, 24
  store i8 %12, ptr %9, align 1
  ret ptr %3
}